; Function Attrs: mustprogress uwtable
define hidden void @_ZN3dpx13GenericHeader17SetSourceTimeDateEl(ptr noundef nonnull align 4 dereferenceable(1664) %0, i64 noundef %1) local_unnamed_addr #8 align 2 personality ptr @__gxx_personality_v0 {
  %3 = alloca [32 x i8], align 16
  %4 = alloca i64, align 8
  %5 = alloca %struct.tm, align 8
  %6 = alloca %"class.OpenImageIO::v3_1_0::basic_string_view", align 8
  call void @llvm.lifetime.start.p0(i64 32, ptr nonnull %3) #29
  call void @llvm.lifetime.start.p0(i64 8, ptr nonnull %4) #29
  store i64 %1, ptr %4, align 8, !tbaa !88
  call void @llvm.lifetime.start.p0(i64 56, ptr nonnull %5) #29
  call void @_ZN11OpenImageIO6v3_1_07Sysutil14get_local_timeEPKlP2tm(ptr noundef nonnull %4, ptr noundef nonnull %5)
  %7 = call i64 @strftime(ptr noundef nonnull %3, i64 noundef 32, ptr noundef nonnull @.str.2, ptr noundef nonnull %5) #29
  %8 = getelementptr inbounds nuw i8, ptr %0, i64 1532
  store ptr %3, ptr %6, align 8, !tbaa !18
  %9 = call noundef i64 @strlen(ptr noundef nonnull dereferenceable(1) %3) #29
  %10 = getelementptr inbounds nuw i8, ptr %6, i64 8
  store i64 %9, ptr %10, align 8, !tbaa !23
  %11 = call noundef ptr @_ZN11OpenImageIO6v3_1_07Strutil11safe_strcpyEPcNS0_17basic_string_viewIcSt11char_traitsIcEEEm(ptr noundef nonnull %8, ptr noundef nonnull %6, i64 noundef 24) #29
  call void @llvm.lifetime.end.p0(i64 56, ptr nonnull %5) #29
  call void @llvm.lifetime.end.p0(i64 8, ptr nonnull %4) #29
  call void @llvm.lifetime.end.p0(i64 32, ptr nonnull %3) #29
  ret void
}